target datalayout = "e-m:e-p270:32:32-p271:32:32-p272:64:64-i64:64-i128:128-f80:128-n8:16:32:64-S128"
target triple = "x86_64-pc-linux-gnu"

%struct.AVFilterContext = type { ptr, ptr, ptr, ptr, ptr, i32, ptr, ptr, i32, ptr, ptr, i32, i32, ptr, ptr, ptr, ptr, i32, ptr, i32, i32 }
%struct.TelecineContext = type { ptr, i32, ptr, i32, i64, %struct.AVRational, %struct.AVRational, i32, i32, i32, [4 x i32], [4 x i32], [5 x ptr], ptr }
%struct.AVRational = type { i32, i32 }
%struct.AVFilterLink = type { ptr, ptr, ptr, ptr, i32, i32, i32, i32, %struct.AVRational, i32, i32, i32, %struct.AVChannelLayout, %struct.AVRational, ptr, i32, %struct.AVFilterFormatsConfig, %struct.AVFilterFormatsConfig }
%struct.AVChannelLayout = type { i32, i32, %union.anon.1, ptr }
%union.anon.1 = type { i64 }
%struct.AVFilterFormatsConfig = type { ptr, ptr, ptr, ptr, ptr }
%struct.FilterLink = type { %struct.AVFilterLink, ptr, i64, i64, i32, i32, i64, i64, i64, i64, %struct.AVRational, ptr }

@.str.3 = private unnamed_addr constant [73 x i8] c"The input needs a constant frame rate; current rate of %d/%d is invalid\0A\00", align 1
@.str.4 = private unnamed_addr constant [21 x i8] c"FPS: %d/%d -> %d/%d\0A\00", align 1
@.str.5 = private unnamed_addr constant [20 x i8] c"TB: %d/%d -> %d/%d\0A\00", align 1

; Function Attrs: alwaysinline nounwind uwtable
define internal i64 @av_inv_q(i64 %0) #8 {
  %2 = alloca %struct.AVRational, align 4
  %3 = alloca %struct.AVRational, align 4
  store i64 %0, ptr %3, align 4
  %4 = getelementptr inbounds nuw %struct.AVRational, ptr %2, i32 0, i32 0
  %5 = getelementptr inbounds nuw %struct.AVRational, ptr %3, i32 0, i32 1
  %6 = load i32, ptr %5, align 4, !tbaa !86
  store i32 %6, ptr %4, align 4, !tbaa !85
  %7 = getelementptr inbounds nuw %struct.AVRational, ptr %2, i32 0, i32 1
  %8 = getelementptr inbounds nuw %struct.AVRational, ptr %3, i32 0, i32 0
  %9 = load i32, ptr %8, align 4, !tbaa !85
  store i32 %9, ptr %7, align 4, !tbaa !86
  %10 = load i64, ptr %2, align 4
  ret i64 %10
}

; Function Attrs: inlinehint nounwind uwtable
define internal ptr @ff_filter_link(ptr noundef %0) #3 {
  %2 = alloca ptr, align 8
  store ptr %0, ptr %2, align 8, !tbaa !41
  %3 = load ptr, ptr %2, align 8, !tbaa !41
  ret ptr %3
}

; Function Attrs: nounwind uwtable
define internal i32 @config_output(ptr noundef %0) #1 {
  %2 = alloca i32, align 4
  %3 = alloca ptr, align 8
  %4 = alloca ptr, align 8
  %5 = alloca ptr, align 8
  %6 = alloca ptr, align 8
  %7 = alloca ptr, align 8
  %8 = alloca ptr, align 8
  %9 = alloca %struct.AVRational, align 4
  %10 = alloca i32, align 4
  %11 = alloca %struct.AVRational, align 4
  %12 = alloca %struct.AVRational, align 4
  %13 = alloca %struct.AVRational, align 4
  %14 = alloca %struct.AVRational, align 4
  %15 = alloca %struct.AVRational, align 4
  store ptr %0, ptr %3, align 8, !tbaa !41
  call void @llvm.lifetime.start.p0(i64 8, ptr %4) #11
  %16 = load ptr, ptr %3, align 8, !tbaa !41
  %17 = getelementptr inbounds nuw %struct.AVFilterLink, ptr %16, i32 0, i32 0
  %18 = load ptr, ptr %17, align 8, !tbaa !82
  store ptr %18, ptr %4, align 8, !tbaa !4
  call void @llvm.lifetime.start.p0(i64 8, ptr %5) #11
  %19 = load ptr, ptr %4, align 8, !tbaa !4
  %20 = getelementptr inbounds nuw %struct.AVFilterContext, ptr %19, i32 0, i32 9
  %21 = load ptr, ptr %20, align 8, !tbaa !9
  store ptr %21, ptr %5, align 8, !tbaa !22
  call void @llvm.lifetime.start.p0(i64 8, ptr %6) #11
  %22 = load ptr, ptr %4, align 8, !tbaa !4
  %23 = getelementptr inbounds nuw %struct.AVFilterContext, ptr %22, i32 0, i32 4
  %24 = load ptr, ptr %23, align 8, !tbaa !83
  %25 = getelementptr inbounds ptr, ptr %24, i64 0
  %26 = load ptr, ptr %25, align 8, !tbaa !41
  store ptr %26, ptr %6, align 8, !tbaa !41
  call void @llvm.lifetime.start.p0(i64 8, ptr %7) #11
  %27 = load ptr, ptr %6, align 8, !tbaa !41
  %28 = call ptr @ff_filter_link(ptr noundef %27)
  store ptr %28, ptr %7, align 8, !tbaa !52
  call void @llvm.lifetime.start.p0(i64 8, ptr %8) #11
  %29 = load ptr, ptr %3, align 8, !tbaa !41
  %30 = call ptr @ff_filter_link(ptr noundef %29)
  store ptr %30, ptr %8, align 8, !tbaa !52
  call void @llvm.lifetime.start.p0(i64 8, ptr %9) #11
  %31 = load ptr, ptr %7, align 8, !tbaa !52
  %32 = getelementptr inbounds nuw %struct.FilterLink, ptr %31, i32 0, i32 10
  call void @llvm.memcpy.p0.p0.i64(ptr align 4 %9, ptr align 8 %32, i64 8, i1 false), !tbaa.struct !84
  %33 = getelementptr inbounds nuw %struct.AVRational, ptr %9, i32 0, i32 0
  %34 = load i32, ptr %33, align 4, !tbaa !85
  %35 = icmp ne i32 %34, 0
  br i1 %35, label %36, label %40

36:                                               ; preds = %1
  %37 = getelementptr inbounds nuw %struct.AVRational, ptr %9, i32 0, i32 1
  %38 = load i32, ptr %37, align 4, !tbaa !86
  %39 = icmp ne i32 %38, 0
  br i1 %39, label %46, label %40

40:                                               ; preds = %36, %1
  %41 = load ptr, ptr %4, align 8, !tbaa !4
  %42 = getelementptr inbounds nuw %struct.AVRational, ptr %9, i32 0, i32 0
  %43 = load i32, ptr %42, align 4, !tbaa !85
  %44 = getelementptr inbounds nuw %struct.AVRational, ptr %9, i32 0, i32 1
  %45 = load i32, ptr %44, align 4, !tbaa !86
  call void (ptr, i32, ptr, ...) @av_log(ptr noundef %41, i32 noundef 16, ptr noundef @.str.3, i32 noundef %43, i32 noundef %45)
  store i32 -22, ptr %2, align 4
  store i32 1, ptr %10, align 4
  br label %104

46:                                               ; preds = %36
  call void @llvm.lifetime.start.p0(i64 8, ptr %11) #11
  %47 = load ptr, ptr %5, align 8, !tbaa !22
  %48 = getelementptr inbounds nuw %struct.TelecineContext, ptr %47, i32 0, i32 5
  %49 = load i64, ptr %48, align 8
  %50 = call i64 @av_inv_q(i64 %49)
  store i64 %50, ptr %12, align 4
  %51 = load i64, ptr %9, align 4
  %52 = load i64, ptr %12, align 4
  %53 = call i64 @av_mul_q(i64 %51, i64 %52) #13
  store i64 %53, ptr %11, align 4
  call void @llvm.memcpy.p0.p0.i64(ptr align 4 %9, ptr align 4 %11, i64 8, i1 false), !tbaa.struct !84
  call void @llvm.lifetime.end.p0(i64 8, ptr %11) #11
  %54 = load ptr, ptr %4, align 8, !tbaa !4
  %55 = load ptr, ptr %7, align 8, !tbaa !52
  %56 = getelementptr inbounds nuw %struct.FilterLink, ptr %55, i32 0, i32 10
  %57 = getelementptr inbounds nuw %struct.AVRational, ptr %56, i32 0, i32 0
  %58 = load i32, ptr %57, align 8, !tbaa !87
  %59 = load ptr, ptr %7, align 8, !tbaa !52
  %60 = getelementptr inbounds nuw %struct.FilterLink, ptr %59, i32 0, i32 10
  %61 = getelementptr inbounds nuw %struct.AVRational, ptr %60, i32 0, i32 1
  %62 = load i32, ptr %61, align 4, !tbaa !88
  %63 = getelementptr inbounds nuw %struct.AVRational, ptr %9, i32 0, i32 0
  %64 = load i32, ptr %63, align 4, !tbaa !85
  %65 = getelementptr inbounds nuw %struct.AVRational, ptr %9, i32 0, i32 1
  %66 = load i32, ptr %65, align 4, !tbaa !86
  call void (ptr, i32, ptr, ...) @av_log(ptr noundef %54, i32 noundef 40, ptr noundef @.str.4, i32 noundef %58, i32 noundef %62, i32 noundef %64, i32 noundef %66)
  %67 = load ptr, ptr %8, align 8, !tbaa !52
  %68 = getelementptr inbounds nuw %struct.FilterLink, ptr %67, i32 0, i32 10
  call void @llvm.memcpy.p0.p0.i64(ptr align 8 %68, ptr align 4 %9, i64 8, i1 false), !tbaa.struct !84
  %69 = load ptr, ptr %3, align 8, !tbaa !41
  %70 = getelementptr inbounds nuw %struct.AVFilterLink, ptr %69, i32 0, i32 13
  call void @llvm.lifetime.start.p0(i64 8, ptr %13) #11
  %71 = load ptr, ptr %6, align 8, !tbaa !41
  %72 = getelementptr inbounds nuw %struct.AVFilterLink, ptr %71, i32 0, i32 13
  %73 = load ptr, ptr %5, align 8, !tbaa !22
  %74 = getelementptr inbounds nuw %struct.TelecineContext, ptr %73, i32 0, i32 5
  %75 = load i64, ptr %72, align 8
  %76 = load i64, ptr %74, align 8
  %77 = call i64 @av_mul_q(i64 %75, i64 %76) #13
  store i64 %77, ptr %13, align 4
  call void @llvm.memcpy.p0.p0.i64(ptr align 8 %70, ptr align 4 %13, i64 8, i1 false), !tbaa.struct !84
  call void @llvm.lifetime.end.p0(i64 8, ptr %13) #11
  %78 = load ptr, ptr %4, align 8, !tbaa !4
  %79 = load ptr, ptr %6, align 8, !tbaa !41
  %80 = getelementptr inbounds nuw %struct.AVFilterLink, ptr %79, i32 0, i32 13
  %81 = getelementptr inbounds nuw %struct.AVRational, ptr %80, i32 0, i32 0
  %82 = load i32, ptr %81, align 8, !tbaa !89
  %83 = load ptr, ptr %6, align 8, !tbaa !41
  %84 = getelementptr inbounds nuw %struct.AVFilterLink, ptr %83, i32 0, i32 13
  %85 = getelementptr inbounds nuw %struct.AVRational, ptr %84, i32 0, i32 1
  %86 = load i32, ptr %85, align 4, !tbaa !90
  %87 = load ptr, ptr %3, align 8, !tbaa !41
  %88 = getelementptr inbounds nuw %struct.AVFilterLink, ptr %87, i32 0, i32 13
  %89 = getelementptr inbounds nuw %struct.AVRational, ptr %88, i32 0, i32 0
  %90 = load i32, ptr %89, align 8, !tbaa !89
  %91 = load ptr, ptr %3, align 8, !tbaa !41
  %92 = getelementptr inbounds nuw %struct.AVFilterLink, ptr %91, i32 0, i32 13
  %93 = getelementptr inbounds nuw %struct.AVRational, ptr %92, i32 0, i32 1
  %94 = load i32, ptr %93, align 4, !tbaa !90
  call void (ptr, i32, ptr, ...) @av_log(ptr noundef %78, i32 noundef 40, ptr noundef @.str.5, i32 noundef %82, i32 noundef %86, i32 noundef %90, i32 noundef %94)
  %95 = load ptr, ptr %5, align 8, !tbaa !22
  %96 = getelementptr inbounds nuw %struct.TelecineContext, ptr %95, i32 0, i32 6
  call void @llvm.lifetime.start.p0(i64 8, ptr %14) #11
  %97 = load ptr, ptr %3, align 8, !tbaa !41
  %98 = getelementptr inbounds nuw %struct.AVFilterLink, ptr %97, i32 0, i32 13
  %99 = load i64, ptr %9, align 4
  %100 = load i64, ptr %98, align 8
  %101 = call i64 @av_mul_q(i64 %99, i64 %100) #13
  store i64 %101, ptr %15, align 4
  %102 = load i64, ptr %15, align 4
  %103 = call i64 @av_inv_q(i64 %102)
  store i64 %103, ptr %14, align 4
  call void @llvm.memcpy.p0.p0.i64(ptr align 8 %96, ptr align 4 %14, i64 8, i1 false), !tbaa.struct !84
  call void @llvm.lifetime.end.p0(i64 8, ptr %14) #11
  store i32 0, ptr %2, align 4
  store i32 1, ptr %10, align 4
  br label %104

104:                                              ; preds = %46, %40
  call void @llvm.lifetime.end.p0(i64 8, ptr %9) #11
  call void @llvm.lifetime.end.p0(i64 8, ptr %8) #11
  call void @llvm.lifetime.end.p0(i64 8, ptr %7) #11
  call void @llvm.lifetime.end.p0(i64 8, ptr %6) #11
  call void @llvm.lifetime.end.p0(i64 8, ptr %5) #11
  call void @llvm.lifetime.end.p0(i64 8, ptr %4) #11
  %105 = load i32, ptr %2, align 4
  ret i32 %105
}